target datalayout = "e-m:e-p270:32:32-p271:32:32-p272:64:64-i64:64-i128:128-f80:128-n8:16:32:64-S128"
target triple = "x86_64-pc-linux-gnu"

%struct.file_entry_t = type { i32, ptr, i8, i8, i32, i64, ptr, %struct.datapagemap, i8, i32, i64, ptr, i32 }
%struct.datapagemap = type { ptr, i32 }
%struct.filemap_t = type { i64, i64, i32, [0 x ptr] }

; Function Attrs: nounwind uwtable
define dso_local void @calculate_totals(ptr noundef %0) #0 {
  %2 = alloca ptr, align 8
  %3 = alloca ptr, align 8
  %4 = alloca i32, align 4
  %5 = alloca ptr, align 8
  %6 = alloca i32, align 4
  store ptr %0, ptr %2, align 8
  call void @llvm.lifetime.start.p0(i64 8, ptr %3) #11
  call void @llvm.lifetime.start.p0(i64 4, ptr %4) #11
  %7 = load ptr, ptr %2, align 8
  %8 = getelementptr inbounds nuw %struct.filemap_t, ptr %7, i32 0, i32 0
  store i64 0, ptr %8, align 8
  %9 = load ptr, ptr %2, align 8
  %10 = getelementptr inbounds nuw %struct.filemap_t, ptr %9, i32 0, i32 1
  store i64 0, ptr %10, align 8
  store i32 0, ptr %4, align 4
  br label %11

11:                                               ; preds = %87, %1
  %12 = load i32, ptr %4, align 4
  %13 = load ptr, ptr %2, align 8
  %14 = getelementptr inbounds nuw %struct.filemap_t, ptr %13, i32 0, i32 2
  %15 = load i32, ptr %14, align 8
  %16 = icmp slt i32 %12, %15
  br i1 %16, label %17, label %90

17:                                               ; preds = %11
  %18 = load ptr, ptr %2, align 8
  %19 = getelementptr inbounds nuw %struct.filemap_t, ptr %18, i32 0, i32 3
  %20 = load i32, ptr %4, align 4
  %21 = sext i32 %20 to i64
  %22 = getelementptr inbounds [0 x ptr], ptr %19, i64 0, i64 %21
  %23 = load ptr, ptr %22, align 8
  store ptr %23, ptr %3, align 8
  %24 = load ptr, ptr %3, align 8
  %25 = getelementptr inbounds nuw %struct.file_entry_t, ptr %24, i32 0, i32 9
  %26 = load i32, ptr %25, align 4
  %27 = icmp ne i32 %26, 1
  br i1 %27, label %28, label %29

28:                                               ; preds = %17
  br label %87

29:                                               ; preds = %17
  %30 = load ptr, ptr %3, align 8
  %31 = getelementptr inbounds nuw %struct.file_entry_t, ptr %30, i32 0, i32 10
  %32 = load i64, ptr %31, align 8
  %33 = load ptr, ptr %2, align 8
  %34 = getelementptr inbounds nuw %struct.filemap_t, ptr %33, i32 0, i32 0
  %35 = load i64, ptr %34, align 8
  %36 = add i64 %35, %32
  store i64 %36, ptr %34, align 8
  %37 = load ptr, ptr %3, align 8
  %38 = getelementptr inbounds nuw %struct.file_entry_t, ptr %37, i32 0, i32 12
  %39 = load i32, ptr %38, align 8
  %40 = icmp eq i32 %39, 2
  br i1 %40, label %41, label %49

41:                                               ; preds = %29
  %42 = load ptr, ptr %3, align 8
  %43 = getelementptr inbounds nuw %struct.file_entry_t, ptr %42, i32 0, i32 10
  %44 = load i64, ptr %43, align 8
  %45 = load ptr, ptr %2, align 8
  %46 = getelementptr inbounds nuw %struct.filemap_t, ptr %45, i32 0, i32 1
  %47 = load i64, ptr %46, align 8
  %48 = add i64 %47, %44
  store i64 %48, ptr %46, align 8
  br label %87

49:                                               ; preds = %29
  %50 = load ptr, ptr %3, align 8
  %51 = getelementptr inbounds nuw %struct.file_entry_t, ptr %50, i32 0, i32 12
  %52 = load i32, ptr %51, align 8
  %53 = icmp eq i32 %52, 3
  br i1 %53, label %54, label %66

54:                                               ; preds = %49
  %55 = load ptr, ptr %3, align 8
  %56 = getelementptr inbounds nuw %struct.file_entry_t, ptr %55, i32 0, i32 10
  %57 = load i64, ptr %56, align 8
  %58 = load ptr, ptr %3, align 8
  %59 = getelementptr inbounds nuw %struct.file_entry_t, ptr %58, i32 0, i32 5
  %60 = load i64, ptr %59, align 8
  %61 = sub i64 %57, %60
  %62 = load ptr, ptr %2, align 8
  %63 = getelementptr inbounds nuw %struct.filemap_t, ptr %62, i32 0, i32 1
  %64 = load i64, ptr %63, align 8
  %65 = add i64 %64, %61
  store i64 %65, ptr %63, align 8
  br label %66

66:                                               ; preds = %54, %49
  %67 = load ptr, ptr %3, align 8
  %68 = getelementptr inbounds nuw %struct.file_entry_t, ptr %67, i32 0, i32 7
  %69 = getelementptr inbounds nuw %struct.datapagemap, ptr %68, i32 0, i32 1
  %70 = load i32, ptr %69, align 8
  %71 = icmp sgt i32 %70, 0
  br i1 %71, label %72, label %86

72:                                               ; preds = %66
  call void @llvm.lifetime.start.p0(i64 8, ptr %5) #11
  call void @llvm.lifetime.start.p0(i64 4, ptr %6) #11
  %73 = load ptr, ptr %3, align 8
  %74 = getelementptr inbounds nuw %struct.file_entry_t, ptr %73, i32 0, i32 7
  %75 = call ptr @datapagemap_iterate(ptr noundef %74)
  store ptr %75, ptr %5, align 8
  br label %76

76:                                               ; preds = %79, %72
  %77 = load ptr, ptr %5, align 8
  %78 = call zeroext i1 @datapagemap_next(ptr noundef %77, ptr noundef %6)
  br i1 %78, label %79, label %84

79:                                               ; preds = %76
  %80 = load ptr, ptr %2, align 8
  %81 = getelementptr inbounds nuw %struct.filemap_t, ptr %80, i32 0, i32 1
  %82 = load i64, ptr %81, align 8
  %83 = add i64 %82, 8192
  store i64 %83, ptr %81, align 8
  br label %76, !llvm.loop !6

84:                                               ; preds = %76
  %85 = load ptr, ptr %5, align 8
  call void @pg_free(ptr noundef %85)
  call void @llvm.lifetime.end.p0(i64 4, ptr %6) #11
  call void @llvm.lifetime.end.p0(i64 8, ptr %5) #11
  br label %86

86:                                               ; preds = %84, %66
  br label %87

87:                                               ; preds = %86, %41, %28
  %88 = load i32, ptr %4, align 4
  %89 = add i32 %88, 1
  store i32 %89, ptr %4, align 4
  br label %11, !llvm.loop !8

90:                                               ; preds = %11
  call void @llvm.lifetime.end.p0(i64 4, ptr %4) #11
  call void @llvm.lifetime.end.p0(i64 8, ptr %3) #11
  ret void
}