; Function Attrs: nounwind uwtable
define dso_local void @calculate_totals(ptr noundef captures(none) initializes((0, 16)) %0) local_unnamed_addr #0 {
  %2 = alloca i32, align 4
  %3 = getelementptr inbounds nuw i8, ptr %0, i64 8
  %4 = getelementptr inbounds nuw i8, ptr %0, i64 16
  tail call void @llvm.memset.p0.i64(ptr noundef nonnull align 8 dereferenceable(16) %0, i8 0, i64 16, i1 false)
  %5 = load i32, ptr %4, align 8
  %6 = icmp sgt i32 %5, 0
  br i1 %6, label %.lr.ph24, label %._crit_edge25

.lr.ph24:                                         ; preds = %1
  %7 = getelementptr inbounds nuw i8, ptr %0, i64 24
  br label %8

8:                                                ; preds = %.lr.ph24, %43
  %9 = phi i32 [ %5, %.lr.ph24 ], [ %44, %43 ]
  %indvars.iv = phi i64 [ 0, %.lr.ph24 ], [ %indvars.iv.next, %43 ]
  %10 = getelementptr inbounds nuw [0 x ptr], ptr %7, i64 0, i64 %indvars.iv
  %11 = load ptr, ptr %10, align 8
  %12 = getelementptr inbounds nuw i8, ptr %11, i64 60
  %13 = load i32, ptr %12, align 4
  %.not = icmp eq i32 %13, 1
  br i1 %.not, label %14, label %43

14:                                               ; preds = %8
  %15 = getelementptr inbounds nuw i8, ptr %11, i64 64
  %16 = load i64, ptr %15, align 8
  %17 = load i64, ptr %0, align 8
  %18 = add i64 %17, %16
  store i64 %18, ptr %0, align 8
  %19 = getelementptr inbounds nuw i8, ptr %11, i64 80
  %20 = load i32, ptr %19, align 8
  switch i32 %20, label %32 [
    i32 2, label %21
    i32 3, label %25
  ]

21:                                               ; preds = %14
  %22 = load i64, ptr %15, align 8
  %23 = load i64, ptr %3, align 8
  %24 = add i64 %23, %22
  store i64 %24, ptr %3, align 8
  br label %43

25:                                               ; preds = %14
  %26 = load i64, ptr %15, align 8
  %27 = getelementptr inbounds nuw i8, ptr %11, i64 24
  %28 = load i64, ptr %27, align 8
  %29 = sub i64 %26, %28
  %30 = load i64, ptr %3, align 8
  %31 = add i64 %29, %30
  store i64 %31, ptr %3, align 8
  br label %32

32:                                               ; preds = %14, %25
  %33 = getelementptr inbounds nuw i8, ptr %11, i64 48
  %34 = load i32, ptr %33, align 8
  %35 = icmp sgt i32 %34, 0
  br i1 %35, label %36, label %43

36:                                               ; preds = %32
  %37 = getelementptr inbounds nuw i8, ptr %11, i64 40
  call void @llvm.lifetime.start.p0(i64 4, ptr nonnull %2) #13
  %38 = call ptr @datapagemap_iterate(ptr noundef nonnull %37) #13
  %39 = call zeroext i1 @datapagemap_next(ptr noundef %38, ptr noundef nonnull %2) #13
  br i1 %39, label %.lr.ph, label %._crit_edge

.lr.ph:                                           ; preds = %36, %.lr.ph
  %40 = load i64, ptr %3, align 8
  %41 = add i64 %40, 8192
  store i64 %41, ptr %3, align 8
  %42 = call zeroext i1 @datapagemap_next(ptr noundef %38, ptr noundef nonnull %2) #13
  br i1 %42, label %.lr.ph, label %._crit_edge, !llvm.loop !11

._crit_edge:                                      ; preds = %.lr.ph, %36
  call void @pg_free(ptr noundef %38) #13
  call void @llvm.lifetime.end.p0(i64 4, ptr nonnull %2) #13
  %.pre = load i32, ptr %4, align 8
  br label %43

43:                                               ; preds = %32, %._crit_edge, %8, %21
  %44 = phi i32 [ %9, %32 ], [ %.pre, %._crit_edge ], [ %9, %8 ], [ %9, %21 ]
  %indvars.iv.next = add nuw nsw i64 %indvars.iv, 1
  %45 = sext i32 %44 to i64
  %46 = icmp slt i64 %indvars.iv.next, %45
  br i1 %46, label %8, label %._crit_edge25, !llvm.loop !12

._crit_edge25:                                    ; preds = %43, %1
  ret void
}